target datalayout = "e-m:e-p270:32:32-p271:32:32-p272:64:64-i64:64-i128:128-f80:128-n8:16:32:64-S128"
target triple = "x86_64-pc-linux-gnu"

%struct.object_id = type { [32 x i8], i32 }
%struct.shallow_info = type { ptr, ptr, i64, ptr, i64, ptr, ptr, ptr, ptr, ptr, ptr, i64 }
%struct.command = type { ptr, ptr, ptr, ptr, i8, i32, %struct.object_id, %struct.object_id, [0 x i8] }

@.str.10 = private unnamed_addr constant [23 x i8] c"builtin/receive-pack.c\00", align 1
@.str.207 = private unnamed_addr constant [46 x i8] c"connectivity check has not been run on ref %s\00", align 1
@bug_called_must_BUG = external global i32, align 4
@.str.208 = private unnamed_addr constant [30 x i8] c"connectivity check skipped???\00", align 1

; Function Attrs: nounwind uwtable
define internal i32 @should_process_cmd(ptr noundef %0) #0 {
  %2 = alloca ptr, align 8
  store ptr %0, ptr %2, align 8, !tbaa !29
  %3 = load ptr, ptr %2, align 8, !tbaa !29
  %4 = getelementptr inbounds nuw %struct.command, ptr %3, i32 0, i32 1
  %5 = load ptr, ptr %4, align 8, !tbaa !11
  %6 = icmp ne ptr %5, null
  br i1 %6, label %15, label %7

7:                                                ; preds = %1
  %8 = load ptr, ptr %2, align 8, !tbaa !29
  %9 = getelementptr inbounds nuw %struct.command, ptr %8, i32 0, i32 4
  %10 = load i8, ptr %9, align 8
  %11 = and i8 %10, 1
  %12 = zext i8 %11 to i32
  %13 = icmp ne i32 %12, 0
  %14 = xor i1 %13, true
  br label %15

15:                                               ; preds = %7, %1
  %16 = phi i1 [ false, %1 ], [ %14, %7 ]
  %17 = zext i1 %16 to i32
  ret i32 %17
}

; Function Attrs: nounwind uwtable
define internal void @BUG_if_skipped_connectivity_check(ptr noundef %0, ptr noundef %1) #0 {
  %3 = alloca ptr, align 8
  %4 = alloca ptr, align 8
  %5 = alloca ptr, align 8
  store ptr %0, ptr %3, align 8, !tbaa !29
  store ptr %1, ptr %4, align 8, !tbaa !100
  call void @llvm.lifetime.start.p0(i64 8, ptr %5) #15
  %6 = load ptr, ptr %3, align 8, !tbaa !29
  store ptr %6, ptr %5, align 8, !tbaa !29
  br label %7

7:                                                ; preds = %30, %2
  %8 = load ptr, ptr %5, align 8, !tbaa !29
  %9 = icmp ne ptr %8, null
  br i1 %9, label %10, label %34

10:                                               ; preds = %7
  %11 = load ptr, ptr %5, align 8, !tbaa !29
  %12 = call i32 @should_process_cmd(ptr noundef %11)
  %13 = icmp ne i32 %12, 0
  br i1 %13, label %14, label %29

14:                                               ; preds = %10
  %15 = load ptr, ptr %4, align 8, !tbaa !100
  %16 = getelementptr inbounds nuw %struct.shallow_info, ptr %15, i32 0, i32 9
  %17 = load ptr, ptr %16, align 8, !tbaa !189
  %18 = load ptr, ptr %5, align 8, !tbaa !29
  %19 = getelementptr inbounds nuw %struct.command, ptr %18, i32 0, i32 5
  %20 = load i32, ptr %19, align 4, !tbaa !4
  %21 = sext i32 %20 to i64
  %22 = getelementptr inbounds i32, ptr %17, i64 %21
  %23 = load i32, ptr %22, align 4, !tbaa !4
  %24 = icmp ne i32 %23, 0
  br i1 %24, label %25, label %29

25:                                               ; preds = %14
  %26 = load ptr, ptr %5, align 8, !tbaa !29
  %27 = getelementptr inbounds nuw %struct.command, ptr %26, i32 0, i32 8
  %28 = getelementptr inbounds [0 x i8], ptr %27, i64 0, i64 0
  call void (ptr, i32, ptr, ...) @bug_fl(ptr noundef @.str.10, i32 noundef 1838, ptr noundef @.str.207, ptr noundef %28)
  br label %29

29:                                               ; preds = %25, %14, %10
  br label %30

30:                                               ; preds = %29
  %31 = load ptr, ptr %5, align 8, !tbaa !29
  %32 = getelementptr inbounds nuw %struct.command, ptr %31, i32 0, i32 0
  %33 = load ptr, ptr %32, align 8, !tbaa !29
  store ptr %33, ptr %5, align 8, !tbaa !29
  br label %7, !llvm.loop !213

34:                                               ; preds = %7
  br label %35

35:                                               ; preds = %34
  %36 = load i32, ptr @bug_called_must_BUG, align 4, !tbaa !4
  %37 = icmp ne i32 %36, 0
  br i1 %37, label %38, label %39

38:                                               ; preds = %35
  call void (ptr, i32, ptr, ...) @BUG_fl(ptr noundef @.str.10, i32 noundef 1840, ptr noundef @.str.208) #16
  unreachable

39:                                               ; preds = %35
  br label %40

40:                                               ; preds = %39
  br label %41

41:                                               ; preds = %40
  call void @llvm.lifetime.end.p0(i64 8, ptr %5) #15
  ret void
}