; Function Attrs: nounwind uwtable
define internal fastcc void @BUG_if_skipped_connectivity_check(ptr noundef nonnull %0, ptr noundef nonnull readonly captures(none) %1) unnamed_addr #0 {
  %3 = getelementptr inbounds nuw i8, ptr %1, i64 72
  br label %4

4:                                                ; preds = %2, %should_process_cmd.exit.thread
  %.011 = phi ptr [ %0, %2 ], [ %19, %should_process_cmd.exit.thread ]
  %5 = getelementptr inbounds nuw i8, ptr %.011, i64 8
  %6 = load ptr, ptr %5, align 8, !tbaa !21
  %.not.i = icmp eq ptr %6, null
  br i1 %.not.i, label %should_process_cmd.exit, label %should_process_cmd.exit.thread

should_process_cmd.exit:                          ; preds = %4
  %7 = getelementptr inbounds nuw i8, ptr %.011, i64 32
  %8 = load i8, ptr %7, align 8
  %9 = and i8 %8, 1
  %.not8.not = icmp eq i8 %9, 0
  br i1 %.not8.not, label %10, label %should_process_cmd.exit.thread

10:                                               ; preds = %should_process_cmd.exit
  %11 = load ptr, ptr %3, align 8, !tbaa !88
  %12 = getelementptr inbounds nuw i8, ptr %.011, i64 36
  %13 = load i32, ptr %12, align 4, !tbaa !4
  %14 = sext i32 %13 to i64
  %15 = getelementptr inbounds i32, ptr %11, i64 %14
  %16 = load i32, ptr %15, align 4, !tbaa !4
  %.not9 = icmp eq i32 %16, 0
  br i1 %.not9, label %should_process_cmd.exit.thread, label %17

17:                                               ; preds = %10
  %18 = getelementptr inbounds nuw i8, ptr %.011, i64 112
  tail call void (ptr, i32, ptr, ...) @bug_fl(ptr noundef nonnull @.str.10, i32 noundef 1838, ptr noundef nonnull @.str.207, ptr noundef nonnull %18) #21
  br label %should_process_cmd.exit.thread

should_process_cmd.exit.thread:                   ; preds = %4, %should_process_cmd.exit, %10, %17
  %19 = load ptr, ptr %.011, align 8, !tbaa !26
  %.not = icmp eq ptr %19, null
  br i1 %.not, label %20, label %4, !llvm.loop !196

20:                                               ; preds = %should_process_cmd.exit.thread
  %21 = load i32, ptr @bug_called_must_BUG, align 4, !tbaa !4
  %.not7 = icmp eq i32 %21, 0
  br i1 %.not7, label %23, label %22

22:                                               ; preds = %20
  tail call void (ptr, i32, ptr, ...) @BUG_fl(ptr noundef nonnull @.str.10, i32 noundef 1840, ptr noundef nonnull @.str.208) #22
  unreachable

23:                                               ; preds = %20
  ret void
}